target datalayout = "e-m:e-p270:32:32-p271:32:32-p272:64:64-i64:64-i128:128-f80:128-n8:16:32:64-S128"
target triple = "x86_64-pc-linux-gnu"

%struct.AVFormatContext = type { ptr, ptr, ptr, ptr, ptr, i32, i32, ptr, i32, ptr, i32, ptr, ptr, i64, i64, i64, i32, i32, i32, i64, i64, ptr, i32, i32, ptr, i32, i32, i32, i32, ptr, i64, i32, i32, %struct.AVIOInterruptCB, i32, i32, i32, i32, i64, i32, i32, i32, i32, i32, i32, i32, i32, i32, i32, i32, i32, i64, i32, i32, i32, i32, i32, ptr, ptr, ptr, ptr, i32, ptr, ptr, ptr, ptr, i32, ptr, ptr, i64, ptr, ptr, ptr, i64 }
%struct.AVIOInterruptCB = type { ptr, ptr }
%struct.AVStream = type { ptr, i32, i32, ptr, ptr, %struct.AVRational, i64, i64, i64, i32, i32, %struct.AVRational, ptr, %struct.AVRational, %struct.AVPacket, i32, %struct.AVRational, i32 }
%struct.AVPacket = type { ptr, i64, i64, ptr, i32, i32, i32, ptr, i32, i64, i64, ptr, ptr, %struct.AVRational }
%struct.AVRational = type { i32, i32 }
%struct.AVCodecParameters = type { i32, i32, i32, ptr, i32, ptr, i32, i32, i64, i32, i32, i32, i32, i32, i32, %struct.AVRational, %struct.AVRational, i32, i32, i32, i32, i32, i32, i32, %struct.AVChannelLayout, i32, i32, i32, i32, i32, i32 }
%struct.AVChannelLayout = type { i32, i32, %union.anon.0, ptr }
%union.anon.0 = type { i64 }
%struct.VideoMuxData = type { ptr, i32, i32, i32, [4 x [1024 x i8]], [4 x [1024 x i8]], i32, i32, i32, ptr, i32, ptr }
%struct.AVPixFmtDescriptor = type { ptr, i8, i8, i8, i64, [4 x %struct.AVComponentDescriptor], ptr }
%struct.AVComponentDescriptor = type { i32, i32, i32, i32, i32 }

@.str.20 = private unnamed_addr constant [4 x i8] c"gif\00", align 1
@.str.21 = private unnamed_addr constant [5 x i8] c"fits\00", align 1
@.str.22 = private unnamed_addr constant [5 x i8] c"avif\00", align 1
@.str.23 = private unnamed_addr constant [2 x i8] c"y\00", align 1

; Function Attrs: nounwind uwtable
define internal i32 @write_header(ptr noundef %0) #0 {
  %2 = alloca ptr, align 8
  %3 = alloca ptr, align 8
  %4 = alloca ptr, align 8
  %5 = alloca ptr, align 8
  %6 = alloca ptr, align 8
  store ptr %0, ptr %2, align 8, !tbaa !4
  call void @llvm.lifetime.start.p0(i64 8, ptr %3) #8
  %7 = load ptr, ptr %2, align 8, !tbaa !4
  %8 = getelementptr inbounds nuw %struct.AVFormatContext, ptr %7, i32 0, i32 3
  %9 = load ptr, ptr %8, align 8, !tbaa !9
  store ptr %9, ptr %3, align 8, !tbaa !26
  call void @llvm.lifetime.start.p0(i64 8, ptr %4) #8
  %10 = load ptr, ptr %2, align 8, !tbaa !4
  %11 = getelementptr inbounds nuw %struct.AVFormatContext, ptr %10, i32 0, i32 7
  %12 = load ptr, ptr %11, align 8, !tbaa !28
  %13 = getelementptr inbounds ptr, ptr %12, i64 0
  %14 = load ptr, ptr %13, align 8, !tbaa !29
  store ptr %14, ptr %4, align 8, !tbaa !29
  call void @llvm.lifetime.start.p0(i64 8, ptr %5) #8
  %15 = load ptr, ptr %4, align 8, !tbaa !29
  %16 = getelementptr inbounds nuw %struct.AVStream, ptr %15, i32 0, i32 3
  %17 = load ptr, ptr %16, align 8, !tbaa !31
  %18 = getelementptr inbounds nuw %struct.AVCodecParameters, ptr %17, i32 0, i32 7
  %19 = load i32, ptr %18, align 4, !tbaa !38
  %20 = call ptr @av_pix_fmt_desc_get(i32 noundef %19)
  store ptr %20, ptr %5, align 8, !tbaa !41
  %21 = load ptr, ptr %4, align 8, !tbaa !29
  %22 = getelementptr inbounds nuw %struct.AVStream, ptr %21, i32 0, i32 3
  %23 = load ptr, ptr %22, align 8, !tbaa !31
  %24 = getelementptr inbounds nuw %struct.AVCodecParameters, ptr %23, i32 0, i32 1
  %25 = load i32, ptr %24, align 4, !tbaa !43
  %26 = icmp eq i32 %25, 97
  br i1 %26, label %27, label %30

27:                                               ; preds = %1
  %28 = load ptr, ptr %3, align 8, !tbaa !26
  %29 = getelementptr inbounds nuw %struct.VideoMuxData, ptr %28, i32 0, i32 9
  store ptr @.str.20, ptr %29, align 8, !tbaa !44
  br label %97

30:                                               ; preds = %1
  %31 = load ptr, ptr %4, align 8, !tbaa !29
  %32 = getelementptr inbounds nuw %struct.AVStream, ptr %31, i32 0, i32 3
  %33 = load ptr, ptr %32, align 8, !tbaa !31
  %34 = getelementptr inbounds nuw %struct.AVCodecParameters, ptr %33, i32 0, i32 1
  %35 = load i32, ptr %34, align 4, !tbaa !43
  %36 = icmp eq i32 %35, 231
  br i1 %36, label %37, label %40

37:                                               ; preds = %30
  %38 = load ptr, ptr %3, align 8, !tbaa !26
  %39 = getelementptr inbounds nuw %struct.VideoMuxData, ptr %38, i32 0, i32 9
  store ptr @.str.21, ptr %39, align 8, !tbaa !44
  br label %96

40:                                               ; preds = %30
  %41 = load ptr, ptr %4, align 8, !tbaa !29
  %42 = getelementptr inbounds nuw %struct.AVStream, ptr %41, i32 0, i32 3
  %43 = load ptr, ptr %42, align 8, !tbaa !31
  %44 = getelementptr inbounds nuw %struct.AVCodecParameters, ptr %43, i32 0, i32 1
  %45 = load i32, ptr %44, align 4, !tbaa !43
  %46 = icmp eq i32 %45, 225
  br i1 %46, label %47, label %50

47:                                               ; preds = %40
  %48 = load ptr, ptr %3, align 8, !tbaa !26
  %49 = getelementptr inbounds nuw %struct.VideoMuxData, ptr %48, i32 0, i32 9
  store ptr @.str.22, ptr %49, align 8, !tbaa !44
  br label %95

50:                                               ; preds = %40
  %51 = load ptr, ptr %4, align 8, !tbaa !29
  %52 = getelementptr inbounds nuw %struct.AVStream, ptr %51, i32 0, i32 3
  %53 = load ptr, ptr %52, align 8, !tbaa !31
  %54 = getelementptr inbounds nuw %struct.AVCodecParameters, ptr %53, i32 0, i32 1
  %55 = load i32, ptr %54, align 4, !tbaa !43
  %56 = icmp eq i32 %55, 13
  br i1 %56, label %57, label %94

57:                                               ; preds = %50
  call void @llvm.lifetime.start.p0(i64 8, ptr %6) #8
  %58 = load ptr, ptr %2, align 8, !tbaa !4
  %59 = getelementptr inbounds nuw %struct.AVFormatContext, ptr %58, i32 0, i32 12
  %60 = load ptr, ptr %59, align 8, !tbaa !46
  %61 = call ptr @strrchr(ptr noundef %60, i32 noundef 46) #9
  store ptr %61, ptr %6, align 8, !tbaa !47
  %62 = load ptr, ptr %6, align 8, !tbaa !47
  %63 = icmp ne ptr %62, null
  br i1 %63, label %64, label %89

64:                                               ; preds = %57
  %65 = load ptr, ptr %6, align 8, !tbaa !47
  %66 = getelementptr inbounds i8, ptr %65, i64 1
  %67 = call i32 @av_strcasecmp(ptr noundef %66, ptr noundef @.str.23)
  %68 = icmp ne i32 %67, 0
  br i1 %68, label %89, label %69

69:                                               ; preds = %64
  %70 = load ptr, ptr %2, align 8, !tbaa !4
  %71 = getelementptr inbounds nuw %struct.AVFormatContext, ptr %70, i32 0, i32 6
  %72 = load i32, ptr %71, align 4, !tbaa !48
  %73 = icmp eq i32 %72, 1
  br i1 %73, label %74, label %89

74:                                               ; preds = %69
  %75 = load ptr, ptr %5, align 8, !tbaa !41
  %76 = icmp ne ptr %75, null
  br i1 %76, label %77, label %89

77:                                               ; preds = %74
  %78 = load ptr, ptr %5, align 8, !tbaa !41
  %79 = getelementptr inbounds nuw %struct.AVPixFmtDescriptor, ptr %78, i32 0, i32 4
  %80 = load i64, ptr %79, align 8, !tbaa !49
  %81 = and i64 %80, 16
  %82 = icmp ne i64 %81, 0
  br i1 %82, label %83, label %89

83:                                               ; preds = %77
  %84 = load ptr, ptr %5, align 8, !tbaa !41
  %85 = getelementptr inbounds nuw %struct.AVPixFmtDescriptor, ptr %84, i32 0, i32 1
  %86 = load i8, ptr %85, align 8, !tbaa !51
  %87 = zext i8 %86 to i32
  %88 = icmp sge i32 %87, 3
  br label %89

89:                                               ; preds = %83, %77, %74, %69, %64, %57
  %90 = phi i1 [ false, %77 ], [ false, %74 ], [ false, %69 ], [ false, %64 ], [ false, %57 ], [ %88, %83 ]
  %91 = zext i1 %90 to i32
  %92 = load ptr, ptr %3, align 8, !tbaa !26
  %93 = getelementptr inbounds nuw %struct.VideoMuxData, ptr %92, i32 0, i32 3
  store i32 %91, ptr %93, align 8, !tbaa !52
  call void @llvm.lifetime.end.p0(i64 8, ptr %6) #8
  br label %94

94:                                               ; preds = %89, %50
  br label %95

95:                                               ; preds = %94, %47
  br label %96

96:                                               ; preds = %95, %37
  br label %97

97:                                               ; preds = %96, %27
  %98 = load ptr, ptr %3, align 8, !tbaa !26
  %99 = getelementptr inbounds nuw %struct.VideoMuxData, ptr %98, i32 0, i32 1
  %100 = load i32, ptr %99, align 8, !tbaa !53
  %101 = load ptr, ptr %3, align 8, !tbaa !26
  %102 = getelementptr inbounds nuw %struct.VideoMuxData, ptr %101, i32 0, i32 2
  store i32 %100, ptr %102, align 4, !tbaa !54
  call void @llvm.lifetime.end.p0(i64 8, ptr %5) #8
  call void @llvm.lifetime.end.p0(i64 8, ptr %4) #8
  call void @llvm.lifetime.end.p0(i64 8, ptr %3) #8
  ret i32 0
}