; Function Attrs: nounwind uwtable
define internal noundef i32 @write_header(ptr noundef readonly captures(none) %0) #0 {
  %2 = getelementptr inbounds nuw i8, ptr %0, i64 24
  %3 = load ptr, ptr %2, align 8, !tbaa !4
  %4 = getelementptr inbounds nuw i8, ptr %0, i64 48
  %5 = load ptr, ptr %4, align 8, !tbaa !24
  %6 = load ptr, ptr %5, align 8, !tbaa !25
  %7 = getelementptr inbounds nuw i8, ptr %6, i64 16
  %8 = load ptr, ptr %7, align 8, !tbaa !27
  %9 = getelementptr inbounds nuw i8, ptr %8, i64 44
  %10 = load i32, ptr %9, align 4, !tbaa !34
  %11 = tail call ptr @av_pix_fmt_desc_get(i32 noundef %10) #8
  %12 = load ptr, ptr %7, align 8, !tbaa !27
  %13 = getelementptr inbounds nuw i8, ptr %12, i64 4
  %14 = load i32, ptr %13, align 4, !tbaa !37
  switch i32 %14, label %45 [
    i32 97, label %15
    i32 231, label %17
    i32 225, label %19
    i32 13, label %21
  ]

15:                                               ; preds = %1
  %16 = getelementptr inbounds nuw i8, ptr %3, i64 8224
  store ptr @.str.20, ptr %16, align 8, !tbaa !38
  br label %45

17:                                               ; preds = %1
  %18 = getelementptr inbounds nuw i8, ptr %3, i64 8224
  store ptr @.str.21, ptr %18, align 8, !tbaa !38
  br label %45

19:                                               ; preds = %1
  %20 = getelementptr inbounds nuw i8, ptr %3, i64 8224
  store ptr @.str.22, ptr %20, align 8, !tbaa !38
  br label %45

21:                                               ; preds = %1
  %22 = getelementptr inbounds nuw i8, ptr %0, i64 88
  %23 = load ptr, ptr %22, align 8, !tbaa !40
  %24 = tail call ptr @strrchr(ptr noundef nonnull dereferenceable(1) %23, i32 noundef 46) #9
  %.not = icmp eq ptr %24, null
  br i1 %.not, label %42, label %25

25:                                               ; preds = %21
  %26 = getelementptr inbounds nuw i8, ptr %24, i64 1
  %27 = tail call i32 @av_strcasecmp(ptr noundef nonnull %26, ptr noundef nonnull @.str.23) #8
  %.not23 = icmp eq i32 %27, 0
  br i1 %.not23, label %28, label %42

28:                                               ; preds = %25
  %29 = getelementptr inbounds nuw i8, ptr %0, i64 44
  %30 = load i32, ptr %29, align 4, !tbaa !41
  %31 = icmp eq i32 %30, 1
  %32 = icmp ne ptr %11, null
  %or.cond = select i1 %31, i1 %32, i1 false
  br i1 %or.cond, label %33, label %42

33:                                               ; preds = %28
  %34 = getelementptr inbounds nuw i8, ptr %11, i64 16
  %35 = load i64, ptr %34, align 8, !tbaa !42
  %36 = and i64 %35, 16
  %.not24 = icmp eq i64 %36, 0
  br i1 %.not24, label %42, label %37

37:                                               ; preds = %33
  %38 = getelementptr inbounds nuw i8, ptr %11, i64 8
  %39 = load i8, ptr %38, align 8, !tbaa !44
  %40 = icmp ugt i8 %39, 2
  %41 = zext i1 %40 to i32
  br label %42

42:                                               ; preds = %37, %33, %28, %25, %21
  %43 = phi i32 [ 0, %33 ], [ 0, %28 ], [ 0, %25 ], [ 0, %21 ], [ %41, %37 ]
  %44 = getelementptr inbounds nuw i8, ptr %3, i64 16
  store i32 %43, ptr %44, align 8, !tbaa !45
  br label %45

45:                                               ; preds = %1, %17, %42, %19, %15
  %46 = getelementptr inbounds nuw i8, ptr %3, i64 8
  %47 = load i32, ptr %46, align 8, !tbaa !46
  %48 = getelementptr inbounds nuw i8, ptr %3, i64 12
  store i32 %47, ptr %48, align 4, !tbaa !47
  ret i32 0
}